target datalayout = "e-m:e-p270:32:32-p271:32:32-p272:64:64-i64:64-i128:128-f80:128-n8:16:32:64-S128"
target triple = "x86_64-pc-linux-gnu"

@.str.2 = private unnamed_addr constant [16 x i8] c"pg_constraint.c\00", align 1
@.str.21 = private unnamed_addr constant [44 x i8] c"invalid type for PERIOD part of foreign key\00", align 1
@.str.22 = private unnamed_addr constant [41 x i8] c"Only range and multirange are supported.\00", align 1
@__func__.FindFKPeriodOpers = private unnamed_addr constant [18 x i8] c"FindFKPeriodOpers\00", align 1
@.str.23 = private unnamed_addr constant [35 x i8] c"cache lookup failed for opclass %u\00", align 1
@.str.24 = private unnamed_addr constant [25 x i8] c"unexpected opcintype: %u\00", align 1

; Function Attrs: nounwind uwtable
define dso_local void @FindFKPeriodOpers(i32 noundef %0, ptr noundef %1, ptr noundef %2, ptr noundef %3) #0 {
  %5 = alloca i32, align 4
  %6 = alloca ptr, align 8
  %7 = alloca ptr, align 8
  %8 = alloca ptr, align 8
  %9 = alloca i32, align 4
  %10 = alloca i32, align 4
  %11 = alloca i16, align 2
  store i32 %0, ptr %5, align 4
  store ptr %1, ptr %6, align 8
  store ptr %2, ptr %7, align 8
  store ptr %3, ptr %8, align 8
  call void @llvm.lifetime.start.p0(i64 4, ptr %9) #9
  store i32 0, ptr %9, align 4
  call void @llvm.lifetime.start.p0(i64 4, ptr %10) #9
  store i32 0, ptr %10, align 4
  call void @llvm.lifetime.start.p0(i64 2, ptr %11) #9
  %12 = load i32, ptr %5, align 4
  %13 = call zeroext i1 @get_opclass_opfamily_and_input_type(i32 noundef %12, ptr noundef %9, ptr noundef %10)
  br i1 %13, label %14, label %34

14:                                               ; preds = %4
  %15 = load i32, ptr %10, align 4
  %16 = icmp ne i32 %15, 3831
  br i1 %16, label %17, label %33

17:                                               ; preds = %14
  %18 = load i32, ptr %10, align 4
  %19 = icmp ne i32 %18, 4537
  br i1 %19, label %20, label %33

20:                                               ; preds = %17
  br label %21

21:                                               ; preds = %20
  br i1 true, label %22, label %24

22:                                               ; preds = %21
  %23 = call zeroext i1 @errstart_cold(i32 noundef 21, ptr noundef null) #11
  br i1 %23, label %26, label %30

24:                                               ; preds = %21
  %25 = call zeroext i1 @errstart(i32 noundef 21, ptr noundef null)
  br i1 %25, label %26, label %30

26:                                               ; preds = %24, %22
  %27 = call i32 @errcode(i32 noundef 1088)
  %28 = call i32 (ptr, ...) @errmsg(ptr noundef @.str.21)
  %29 = call i32 (ptr, ...) @errdetail(ptr noundef @.str.22)
  call void @errfinish(ptr noundef @.str.2, i32 noundef 1641, ptr noundef @__func__.FindFKPeriodOpers)
  br label %30

30:                                               ; preds = %26, %24, %22
  unreachable

31:                                               ; No predecessors!
  br label %32

32:                                               ; preds = %31
  br label %33

33:                                               ; preds = %32, %17, %14
  br label %46

34:                                               ; preds = %4
  br label %35

35:                                               ; preds = %34
  br i1 true, label %36, label %38

36:                                               ; preds = %35
  %37 = call zeroext i1 @errstart_cold(i32 noundef 21, ptr noundef null) #11
  br i1 %37, label %40, label %43

38:                                               ; preds = %35
  %39 = call zeroext i1 @errstart(i32 noundef 21, ptr noundef null)
  br i1 %39, label %40, label %43

40:                                               ; preds = %38, %36
  %41 = load i32, ptr %5, align 4
  %42 = call i32 (ptr, ...) @errmsg_internal(ptr noundef @.str.23, i32 noundef %41)
  call void @errfinish(ptr noundef @.str.2, i32 noundef 1645, ptr noundef @__func__.FindFKPeriodOpers)
  br label %43

43:                                               ; preds = %40, %38, %36
  unreachable

44:                                               ; No predecessors!
  br label %45

45:                                               ; preds = %44
  br label %46

46:                                               ; preds = %45, %33
  %47 = load i32, ptr %5, align 4
  %48 = load ptr, ptr %6, align 8
  call void @GetOperatorFromCompareType(i32 noundef %47, i32 noundef 0, i32 noundef 8, ptr noundef %48, ptr noundef %11)
  %49 = load i32, ptr %5, align 4
  %50 = load ptr, ptr %7, align 8
  call void @GetOperatorFromCompareType(i32 noundef %49, i32 noundef 4537, i32 noundef 8, ptr noundef %50, ptr noundef %11)
  %51 = load i32, ptr %10, align 4
  switch i32 %51, label %56 [
    i32 3831, label %52
    i32 4537, label %54
  ]

52:                                               ; preds = %46
  %53 = load ptr, ptr %8, align 8
  store i32 3900, ptr %53, align 4
  br label %68

54:                                               ; preds = %46
  %55 = load ptr, ptr %8, align 8
  store i32 4394, ptr %55, align 4
  br label %68

56:                                               ; preds = %46
  br label %57

57:                                               ; preds = %56
  br i1 true, label %58, label %60

58:                                               ; preds = %57
  %59 = call zeroext i1 @errstart_cold(i32 noundef 21, ptr noundef null) #11
  br i1 %59, label %62, label %65

60:                                               ; preds = %57
  %61 = call zeroext i1 @errstart(i32 noundef 21, ptr noundef null)
  br i1 %61, label %62, label %65

62:                                               ; preds = %60, %58
  %63 = load i32, ptr %10, align 4
  %64 = call i32 (ptr, ...) @errmsg_internal(ptr noundef @.str.24, i32 noundef %63)
  call void @errfinish(ptr noundef @.str.2, i32 noundef 1679, ptr noundef @__func__.FindFKPeriodOpers)
  br label %65

65:                                               ; preds = %62, %60, %58
  unreachable

66:                                               ; No predecessors!
  br label %67

67:                                               ; preds = %66
  br label %68

68:                                               ; preds = %67, %54, %52
  call void @llvm.lifetime.end.p0(i64 2, ptr %11) #9
  call void @llvm.lifetime.end.p0(i64 4, ptr %10) #9
  call void @llvm.lifetime.end.p0(i64 4, ptr %9) #9
  ret void
}