; Function Attrs: nounwind uwtable
define dso_local void @FindFKPeriodOpers(i32 noundef %0, ptr noundef %1, ptr noundef %2, ptr noundef writeonly captures(none) %3) local_unnamed_addr #0 {
  %5 = alloca i32, align 4
  %6 = alloca i32, align 4
  %7 = alloca i16, align 2
  call void @llvm.lifetime.start.p0(i64 4, ptr nonnull %5) #12
  store i32 0, ptr %5, align 4
  call void @llvm.lifetime.start.p0(i64 4, ptr nonnull %6) #12
  store i32 0, ptr %6, align 4
  call void @llvm.lifetime.start.p0(i64 2, ptr nonnull %7) #12
  %8 = call zeroext i1 @get_opclass_opfamily_and_input_type(i32 noundef %0, ptr noundef nonnull %5, ptr noundef nonnull %6) #12
  br i1 %8, label %9, label %16

9:                                                ; preds = %4
  %10 = load i32, ptr %6, align 4
  switch i32 %10, label %11 [
    i32 4537, label %19
    i32 3831, label %19
  ]

11:                                               ; preds = %9
  %12 = call zeroext i1 @errstart_cold(i32 noundef 21, ptr noundef null) #14
  call void @llvm.assume(i1 %12)
  %13 = call i32 @errcode(i32 noundef 1088) #12
  %14 = call i32 (ptr, ...) @errmsg(ptr noundef nonnull @.str.21) #12
  %15 = call i32 (ptr, ...) @errdetail(ptr noundef nonnull @.str.22) #12
  call void @errfinish(ptr noundef nonnull @.str.2, i32 noundef 1641, ptr noundef nonnull @__func__.FindFKPeriodOpers) #12
  unreachable

16:                                               ; preds = %4
  %17 = call zeroext i1 @errstart_cold(i32 noundef 21, ptr noundef null) #14
  call void @llvm.assume(i1 %17)
  %18 = call i32 (ptr, ...) @errmsg_internal(ptr noundef nonnull @.str.23, i32 noundef %0) #12
  call void @errfinish(ptr noundef nonnull @.str.2, i32 noundef 1645, ptr noundef nonnull @__func__.FindFKPeriodOpers) #12
  unreachable

19:                                               ; preds = %9, %9
  call void @GetOperatorFromCompareType(i32 noundef %0, i32 noundef 0, i32 noundef 8, ptr noundef %1, ptr noundef nonnull %7) #12
  call void @GetOperatorFromCompareType(i32 noundef %0, i32 noundef 4537, i32 noundef 8, ptr noundef %2, ptr noundef nonnull %7) #12
  %20 = load i32, ptr %6, align 4
  switch i32 %20, label %22 [
    i32 3831, label %26
    i32 4537, label %21
  ]

21:                                               ; preds = %19
  br label %26

22:                                               ; preds = %19
  %23 = call zeroext i1 @errstart_cold(i32 noundef 21, ptr noundef null) #14
  call void @llvm.assume(i1 %23)
  %24 = load i32, ptr %6, align 4
  %25 = call i32 (ptr, ...) @errmsg_internal(ptr noundef nonnull @.str.24, i32 noundef %24) #12
  call void @errfinish(ptr noundef nonnull @.str.2, i32 noundef 1679, ptr noundef nonnull @__func__.FindFKPeriodOpers) #12
  unreachable

26:                                               ; preds = %19, %21
  %storemerge = phi i32 [ 4394, %21 ], [ 3900, %19 ]
  store i32 %storemerge, ptr %3, align 4
  call void @llvm.lifetime.end.p0(i64 2, ptr nonnull %7) #12
  call void @llvm.lifetime.end.p0(i64 4, ptr nonnull %6) #12
  call void @llvm.lifetime.end.p0(i64 4, ptr nonnull %5) #12
  ret void
}